; Function Attrs: nounwind uwtable
define void @If_CutTraverse(ptr noundef readonly captures(none) %0, ptr noundef %1, ptr noundef readonly captures(none) %2, ptr noundef initializes((4, 8)) %3) local_unnamed_addr #1 {
  %5 = getelementptr inbounds nuw i8, ptr %3, i64 4
  store i32 0, ptr %5, align 4
  %6 = getelementptr inbounds nuw i8, ptr %2, i64 36
  %7 = getelementptr inbounds nuw i8, ptr %2, i64 28
  %8 = load i64, ptr %7, align 4
  %9 = and i64 %8, 4278190080
  %.not27 = icmp eq i64 %9, 0
  br i1 %.not27, label %.critedge, label %.lr.ph

.lr.ph:                                           ; preds = %4
  %10 = getelementptr i8, ptr %0, i64 40
  %.phi.trans.insert.i = getelementptr inbounds nuw i8, ptr %3, i64 8
  br label %11

11:                                               ; preds = %.lr.ph, %Vec_PtrPush.exit
  %indvars.iv = phi i64 [ 0, %.lr.ph ], [ %indvars.iv.next, %Vec_PtrPush.exit ]
  %12 = getelementptr inbounds nuw [0 x i32], ptr %6, i64 0, i64 %indvars.iv
  %13 = load i32, ptr %12, align 4
  %.val21 = load ptr, ptr %10, align 8
  %14 = getelementptr i8, ptr %.val21, i64 8
  %.val21.val = load ptr, ptr %14, align 8
  %15 = sext i32 %13 to i64
  %16 = getelementptr inbounds ptr, ptr %.val21.val, i64 %15
  %17 = load ptr, ptr %16, align 8
  %.not = icmp eq ptr %17, null
  br i1 %.not, label %.critedge, label %18

18:                                               ; preds = %11
  %19 = load i32, ptr %5, align 4
  %20 = load i32, ptr %3, align 8
  %21 = icmp eq i32 %19, %20
  br i1 %21, label %22, label %.Vec_PtrGrow.exit11_crit_edge.i

.Vec_PtrGrow.exit11_crit_edge.i:                  ; preds = %18
  %.pre.i = load ptr, ptr %.phi.trans.insert.i, align 8
  br label %Vec_PtrPush.exit

22:                                               ; preds = %18
  %23 = icmp slt i32 %19, 16
  br i1 %23, label %24, label %31

24:                                               ; preds = %22
  %25 = load ptr, ptr %.phi.trans.insert.i, align 8
  %.not9.i.i = icmp eq ptr %25, null
  br i1 %.not9.i.i, label %28, label %26

26:                                               ; preds = %24
  %27 = tail call dereferenceable_or_null(128) ptr @realloc(ptr noundef nonnull %25, i64 noundef 128) #12
  br label %Vec_PtrGrow.exit.i

28:                                               ; preds = %24
  %29 = tail call noalias dereferenceable_or_null(128) ptr @malloc(i64 noundef 128) #11
  br label %Vec_PtrGrow.exit.i

Vec_PtrGrow.exit.i:                               ; preds = %28, %26
  %30 = phi ptr [ %27, %26 ], [ %29, %28 ]
  store ptr %30, ptr %.phi.trans.insert.i, align 8
  store i32 16, ptr %3, align 8
  br label %Vec_PtrPush.exit

31:                                               ; preds = %22
  %32 = shl nuw nsw i32 %19, 1
  %33 = load ptr, ptr %.phi.trans.insert.i, align 8
  %.not9.i10.i = icmp eq ptr %33, null
  %34 = zext nneg i32 %32 to i64
  %35 = shl nuw nsw i64 %34, 3
  br i1 %.not9.i10.i, label %38, label %36

36:                                               ; preds = %31
  %37 = tail call ptr @realloc(ptr noundef nonnull %33, i64 noundef %35) #12
  br label %40

38:                                               ; preds = %31
  %39 = tail call noalias ptr @malloc(i64 noundef %35) #11
  br label %40

40:                                               ; preds = %38, %36
  %41 = phi ptr [ %37, %36 ], [ %39, %38 ]
  store ptr %41, ptr %.phi.trans.insert.i, align 8
  store i32 %32, ptr %3, align 8
  br label %Vec_PtrPush.exit

Vec_PtrPush.exit:                                 ; preds = %.Vec_PtrGrow.exit11_crit_edge.i, %Vec_PtrGrow.exit.i, %40
  %42 = phi ptr [ %.pre.i, %.Vec_PtrGrow.exit11_crit_edge.i ], [ %41, %40 ], [ %30, %Vec_PtrGrow.exit.i ]
  %43 = load i32, ptr %5, align 4
  %44 = add nsw i32 %43, 1
  store i32 %44, ptr %5, align 4
  %45 = sext i32 %43 to i64
  %46 = getelementptr inbounds ptr, ptr %42, i64 %45
  store ptr %17, ptr %46, align 8
  %47 = load i32, ptr %17, align 8
  %48 = or i32 %47, 256
  store i32 %48, ptr %17, align 8
  %indvars.iv.next = add nuw nsw i64 %indvars.iv, 1
  %49 = load i64, ptr %7, align 4
  %50 = lshr i64 %49, 24
  %51 = and i64 %50, 255
  %52 = icmp samesign ult i64 %indvars.iv.next, %51
  br i1 %52, label %11, label %.critedge, !llvm.loop !26

.critedge:                                        ; preds = %11, %Vec_PtrPush.exit, %4
  tail call fastcc void @If_CutTraverse_rec(ptr noundef %1, ptr noundef nonnull %3)
  %.val24 = load i32, ptr %5, align 4
  %53 = icmp sgt i32 %.val24, 0
  br i1 %53, label %.lr.ph26, label %.critedge2

.lr.ph26:                                         ; preds = %.critedge
  %54 = getelementptr i8, ptr %3, i64 8
  br label %55

55:                                               ; preds = %.lr.ph26, %55
  %indvars.iv29 = phi i64 [ 0, %.lr.ph26 ], [ %indvars.iv.next30, %55 ]
  %.val20 = load ptr, ptr %54, align 8
  %56 = getelementptr inbounds nuw ptr, ptr %.val20, i64 %indvars.iv29
  %57 = load ptr, ptr %56, align 8
  %58 = load i32, ptr %57, align 8
  %59 = and i32 %58, -257
  store i32 %59, ptr %57, align 8
  %indvars.iv.next30 = add nuw nsw i64 %indvars.iv29, 1
  %.val = load i32, ptr %5, align 4
  %60 = sext i32 %.val to i64
  %61 = icmp slt i64 %indvars.iv.next30, %60
  br i1 %61, label %55, label %.critedge2, !llvm.loop !27

.critedge2:                                       ; preds = %55, %.critedge
  ret void
}